target datalayout = "e-m:e-p270:32:32-p271:32:32-p272:64:64-i64:64-i128:128-f80:128-n8:16:32:64-S128"
target triple = "x86_64-pc-linux-gnu"

%struct.TupleTableSlotOps = type { i64, ptr, ptr, ptr, ptr, ptr, ptr, ptr, ptr, ptr, ptr, ptr, ptr }
%struct.CteScanState = type { %struct.ScanState, i32, i32, ptr, ptr, ptr, i8 }
%struct.ScanState = type { %struct.PlanState, ptr, ptr, ptr }
%struct.PlanState = type { i32, ptr, ptr, ptr, ptr, ptr, ptr, ptr, ptr, ptr, ptr, ptr, ptr, ptr, ptr, ptr, ptr, ptr, i8, ptr, ptr, ptr, ptr, ptr, i8, i8, i8, i8, i8, i8, i8, i8 }
%struct.TupleTableSlot = type { i32, i16, i16, ptr, ptr, ptr, ptr, ptr, %struct.ItemPointerData, i32 }
%struct.ItemPointerData = type { %struct.BlockIdData, i16 }
%struct.BlockIdData = type { i16, i16 }

; Function Attrs: inlinehint nounwind uwtable
define internal ptr @ExecClearTuple(ptr noundef %0) #2 {
  %2 = alloca ptr, align 8
  store ptr %0, ptr %2, align 8
  %3 = load ptr, ptr %2, align 8
  %4 = getelementptr inbounds nuw %struct.TupleTableSlot, ptr %3, i32 0, i32 3
  %5 = load ptr, ptr %4, align 8
  %6 = getelementptr inbounds nuw %struct.TupleTableSlotOps, ptr %5, i32 0, i32 3
  %7 = load ptr, ptr %6, align 8
  %8 = load ptr, ptr %2, align 8
  call void %7(ptr noundef %8)
  %9 = load ptr, ptr %2, align 8
  ret ptr %9
}

; Function Attrs: nounwind uwtable
define dso_local void @ExecReScanCteScan(ptr noundef %0) #0 {
  %2 = alloca ptr, align 8
  %3 = alloca ptr, align 8
  store ptr %0, ptr %2, align 8
  call void @llvm.lifetime.start.p0(i64 8, ptr %3) #4
  %4 = load ptr, ptr %2, align 8
  %5 = getelementptr inbounds nuw %struct.CteScanState, ptr %4, i32 0, i32 4
  %6 = load ptr, ptr %5, align 8
  %7 = getelementptr inbounds nuw %struct.CteScanState, ptr %6, i32 0, i32 5
  %8 = load ptr, ptr %7, align 8
  store ptr %8, ptr %3, align 8
  %9 = load ptr, ptr %2, align 8
  %10 = getelementptr inbounds nuw %struct.CteScanState, ptr %9, i32 0, i32 0
  %11 = getelementptr inbounds nuw %struct.ScanState, ptr %10, i32 0, i32 0
  %12 = getelementptr inbounds nuw %struct.PlanState, ptr %11, i32 0, i32 15
  %13 = load ptr, ptr %12, align 8
  %14 = icmp ne ptr %13, null
  br i1 %14, label %15, label %22

15:                                               ; preds = %1
  %16 = load ptr, ptr %2, align 8
  %17 = getelementptr inbounds nuw %struct.CteScanState, ptr %16, i32 0, i32 0
  %18 = getelementptr inbounds nuw %struct.ScanState, ptr %17, i32 0, i32 0
  %19 = getelementptr inbounds nuw %struct.PlanState, ptr %18, i32 0, i32 15
  %20 = load ptr, ptr %19, align 8
  %21 = call ptr @ExecClearTuple(ptr noundef %20)
  br label %22

22:                                               ; preds = %15, %1
  %23 = load ptr, ptr %2, align 8
  %24 = getelementptr inbounds nuw %struct.CteScanState, ptr %23, i32 0, i32 0
  call void @ExecScanReScan(ptr noundef %24)
  %25 = load ptr, ptr %2, align 8
  %26 = getelementptr inbounds nuw %struct.CteScanState, ptr %25, i32 0, i32 4
  %27 = load ptr, ptr %26, align 8
  %28 = getelementptr inbounds nuw %struct.CteScanState, ptr %27, i32 0, i32 3
  %29 = load ptr, ptr %28, align 8
  %30 = getelementptr inbounds nuw %struct.PlanState, ptr %29, i32 0, i32 13
  %31 = load ptr, ptr %30, align 8
  %32 = icmp ne ptr %31, null
  br i1 %32, label %33, label %39

33:                                               ; preds = %22
  %34 = load ptr, ptr %3, align 8
  call void @tuplestore_clear(ptr noundef %34)
  %35 = load ptr, ptr %2, align 8
  %36 = getelementptr inbounds nuw %struct.CteScanState, ptr %35, i32 0, i32 4
  %37 = load ptr, ptr %36, align 8
  %38 = getelementptr inbounds nuw %struct.CteScanState, ptr %37, i32 0, i32 6
  store i8 0, ptr %38, align 8
  br label %45

39:                                               ; preds = %22
  %40 = load ptr, ptr %3, align 8
  %41 = load ptr, ptr %2, align 8
  %42 = getelementptr inbounds nuw %struct.CteScanState, ptr %41, i32 0, i32 2
  %43 = load i32, ptr %42, align 4
  call void @tuplestore_select_read_pointer(ptr noundef %40, i32 noundef %43)
  %44 = load ptr, ptr %3, align 8
  call void @tuplestore_rescan(ptr noundef %44)
  br label %45

45:                                               ; preds = %39, %33
  call void @llvm.lifetime.end.p0(i64 8, ptr %3) #4
  ret void
}