; Function Attrs: nounwind uwtable
define dso_local void @ExecReScanCteScan(ptr noundef %0) local_unnamed_addr #0 {
  %2 = getelementptr inbounds nuw i8, ptr %0, i64 240
  %3 = load ptr, ptr %2, align 8
  %4 = getelementptr inbounds nuw i8, ptr %3, i64 248
  %5 = load ptr, ptr %4, align 8
  %6 = getelementptr inbounds nuw i8, ptr %0, i64 120
  %7 = load ptr, ptr %6, align 8
  %.not = icmp eq ptr %7, null
  br i1 %.not, label %13, label %8

8:                                                ; preds = %1
  %9 = getelementptr inbounds nuw i8, ptr %7, i64 8
  %10 = load ptr, ptr %9, align 8
  %11 = getelementptr inbounds nuw i8, ptr %10, i64 24
  %12 = load ptr, ptr %11, align 8
  tail call void %12(ptr noundef nonnull %7) #3
  br label %13

13:                                               ; preds = %8, %1
  tail call void @ExecScanReScan(ptr noundef nonnull %0) #3
  %14 = load ptr, ptr %2, align 8
  %15 = getelementptr inbounds nuw i8, ptr %14, i64 232
  %16 = load ptr, ptr %15, align 8
  %17 = getelementptr inbounds nuw i8, ptr %16, i64 104
  %18 = load ptr, ptr %17, align 8
  %.not10 = icmp eq ptr %18, null
  br i1 %.not10, label %22, label %19

19:                                               ; preds = %13
  tail call void @tuplestore_clear(ptr noundef %5) #3
  %20 = load ptr, ptr %2, align 8
  %21 = getelementptr inbounds nuw i8, ptr %20, i64 256
  store i8 0, ptr %21, align 8
  br label %25

22:                                               ; preds = %13
  %23 = getelementptr inbounds nuw i8, ptr %0, i64 228
  %24 = load i32, ptr %23, align 4
  tail call void @tuplestore_select_read_pointer(ptr noundef %5, i32 noundef %24) #3
  tail call void @tuplestore_rescan(ptr noundef %5) #3
  br label %25

25:                                               ; preds = %22, %19
  ret void
}